; Function Attrs: inlinehint mustprogress nounwind uwtable
define internal void @_ZN5folly7futures12_GLOBAL__N_112FutureWaiterISt10unique_ptrINS_6fibers5BatonESt14default_deleteIS5_EEED2Ev(ptr noundef nonnull align 8 captures(none) dereferenceable(32) initializes((0, 8)) %0) unnamed_addr #13 align 2 personality ptr @__gxx_personality_v0 {
  store ptr getelementptr inbounds nuw inrange(-16, 24) (i8, ptr @_ZTVN5folly7futures12_GLOBAL__N_112FutureWaiterISt10unique_ptrINS_6fibers5BatonESt14default_deleteIS5_EEEE, i64 16), ptr %0, align 8, !tbaa !29
  %2 = getelementptr inbounds nuw i8, ptr %0, i64 24
  %3 = load ptr, ptr %2, align 8, !tbaa !133
  %.not.i = icmp eq ptr %3, null
  br i1 %.not.i, label %_ZNSt10unique_ptrIN5folly6fibers5BatonESt14default_deleteIS2_EED2Ev.exit, label %_ZNKSt14default_deleteIN5folly6fibers5BatonEEclEPS2_.exit.i

_ZNKSt14default_deleteIN5folly6fibers5BatonEEclEPS2_.exit.i: ; preds = %1
  tail call void @_ZdlPvm(ptr noundef nonnull %3, i64 noundef 8) #35
  br label %_ZNSt10unique_ptrIN5folly6fibers5BatonESt14default_deleteIS2_EED2Ev.exit

_ZNSt10unique_ptrIN5folly6fibers5BatonESt14default_deleteIS2_EED2Ev.exit: ; preds = %1, %_ZNKSt14default_deleteIN5folly6fibers5BatonEEclEPS2_.exit.i
  store ptr null, ptr %2, align 8, !tbaa !133
  %4 = getelementptr inbounds nuw i8, ptr %0, i64 16
  %5 = load ptr, ptr %4, align 8, !tbaa !125
  %.not.i.i = icmp eq ptr %5, null
  br i1 %.not.i.i, label %_ZN5folly7PromiseINS_4UnitEED2Ev.exit, label %6

6:                                                ; preds = %_ZNSt10unique_ptrIN5folly6fibers5BatonESt14default_deleteIS2_EED2Ev.exit
  %7 = getelementptr inbounds nuw i8, ptr %0, i64 8
  %8 = load i8, ptr %7, align 8, !tbaa !130, !range !135, !noundef !136
  %9 = trunc nuw i8 %8 to i1
  br i1 %9, label %11, label %10

10:                                               ; preds = %6
  tail call void @_ZN5folly7futures6detail8CoreBase9detachOneEv(ptr noundef nonnull align 16 dereferenceable(136) %5) #23
  %.pre.i.i = load ptr, ptr %4, align 8, !tbaa !125
  br label %11

11:                                               ; preds = %10, %6
  %12 = phi ptr [ %.pre.i.i, %10 ], [ %5, %6 ]
  invoke void @_ZN5folly7futures6detail32coreDetachPromiseMaybeWithResultINS_4UnitEEEvRNS1_4CoreIT_EE(ptr noundef nonnull align 16 dereferenceable(160) %12)
          to label %.noexc.i unwind label %13

.noexc.i:                                         ; preds = %11
  store ptr null, ptr %4, align 8, !tbaa !125
  br label %_ZN5folly7PromiseINS_4UnitEED2Ev.exit

13:                                               ; preds = %11
  %14 = landingpad { ptr, i32 }
          catch ptr null
  %15 = extractvalue { ptr, i32 } %14, 0
  tail call void @__clang_call_terminate(ptr %15) #33
  unreachable

_ZN5folly7PromiseINS_4UnitEED2Ev.exit:            ; preds = %_ZNSt10unique_ptrIN5folly6fibers5BatonESt14default_deleteIS2_EED2Ev.exit, %.noexc.i
  ret void
}